target datalayout = "e-m:e-p270:32:32-p271:32:32-p272:64:64-i64:64-i128:128-f80:128-n8:16:32:64-S128"
target triple = "x86_64-pc-linux-gnu"

%"class.llvm::Metadata" = type { i8, i8, i16, i32 }
%"class.llvm::ArrayRef" = type { ptr, i64 }
%"class.llvm::MDNode" = type { %"class.llvm::Metadata", %"class.llvm::ContextAndReplaceableUses" }
%"class.llvm::ContextAndReplaceableUses" = type { %"class.llvm::PointerUnion" }
%"class.llvm::PointerUnion" = type { %"class.llvm::pointer_union_detail::PointerUnionMembers" }
%"class.llvm::pointer_union_detail::PointerUnionMembers" = type { %"class.llvm::pointer_union_detail::PointerUnionMembers.0" }
%"class.llvm::pointer_union_detail::PointerUnionMembers.0" = type { %"class.llvm::pointer_union_detail::PointerUnionMembers.1" }
%"class.llvm::pointer_union_detail::PointerUnionMembers.1" = type { %"class.llvm::PointerIntPair" }
%"class.llvm::PointerIntPair" = type { %"struct.llvm::detail::PunnedPointer" }
%"struct.llvm::detail::PunnedPointer" = type { [8 x i8] }
%"class.llvm::DINode" = type { %"class.llvm::MDNode" }
%"class.llvm::DIScope" = type { %"class.llvm::DINode" }
%"class.llvm::DISubprogram" = type { %"class.llvm::DILocalScope", i32, i32, i32, i32, i32, i32 }
%"class.llvm::DILocalScope" = type { %"class.llvm::DIScope" }

; Function Attrs: mustprogress nounwind uwtable
define linkonce_odr hidden void @_ZN4llvm6DINodeC2ERNS_11LLVMContextEjNS_8Metadata11StorageTypeEjNS_8ArrayRefIPS3_EES7_(ptr noundef nonnull align 8 dereferenceable(16) %0, ptr noundef nonnull align 8 dereferenceable(8) %1, i32 noundef %2, i32 noundef %3, i32 noundef %4, ptr noundef byval(%"class.llvm::ArrayRef") align 8 %5, ptr noundef byval(%"class.llvm::ArrayRef") align 8 %6) unnamed_addr #1 comdat align 2 {
  %8 = alloca ptr, align 8
  %9 = alloca ptr, align 8
  %10 = alloca i32, align 4
  %11 = alloca i32, align 4
  %12 = alloca i32, align 4
  %13 = alloca %"class.llvm::ArrayRef", align 8
  %14 = alloca %"class.llvm::ArrayRef", align 8
  store ptr %0, ptr %8, align 8
  store ptr %1, ptr %9, align 8
  store i32 %2, ptr %10, align 4
  store i32 %3, ptr %11, align 4
  store i32 %4, ptr %12, align 4
  %15 = load ptr, ptr %8, align 8
  %16 = load ptr, ptr %9, align 8
  %17 = load i32, ptr %10, align 4
  %18 = load i32, ptr %11, align 4
  call void @llvm.memcpy.p0.p0.i64(ptr align 8 %13, ptr align 8 %5, i64 16, i1 false)
  call void @llvm.memcpy.p0.p0.i64(ptr align 8 %14, ptr align 8 %6, i64 16, i1 false)
  %19 = getelementptr inbounds nuw { ptr, i64 }, ptr %13, i32 0, i32 0
  %20 = load ptr, ptr %19, align 8
  %21 = getelementptr inbounds nuw { ptr, i64 }, ptr %13, i32 0, i32 1
  %22 = load i64, ptr %21, align 8
  call void @_ZN4llvm6MDNodeC2ERNS_11LLVMContextEjNS_8Metadata11StorageTypeENS_8ArrayRefIPS3_EES7_(ptr noundef nonnull align 8 dereferenceable(16) %15, ptr noundef nonnull align 8 dereferenceable(8) %16, i32 noundef %17, i32 noundef %18, ptr %20, i64 %22, ptr noundef byval(%"class.llvm::ArrayRef") align 8 %14)
  %23 = load i32, ptr %12, align 4
  %24 = trunc i32 %23 to i16
  %25 = getelementptr inbounds nuw %"class.llvm::Metadata", ptr %15, i32 0, i32 2
  store i16 %24, ptr %25, align 2
  ret void
}

; Function Attrs: mustprogress nounwind uwtable
define linkonce_odr hidden void @_ZN4llvm8ArrayRefIPNS_8MetadataEEC2ESt9nullopt_t(ptr noundef nonnull align 8 dereferenceable(16) %0) unnamed_addr #1 comdat align 2 {
  %2 = alloca ptr, align 8
  store ptr %0, ptr %2, align 8
  %3 = load ptr, ptr %2, align 8
  %4 = getelementptr inbounds nuw %"class.llvm::ArrayRef", ptr %3, i32 0, i32 0
  store ptr null, ptr %4, align 8
  %5 = getelementptr inbounds nuw %"class.llvm::ArrayRef", ptr %3, i32 0, i32 1
  store i64 0, ptr %5, align 8
  ret void
}

; Function Attrs: mustprogress nounwind uwtable
define linkonce_odr hidden void @_ZN4llvm7DIScopeC2ERNS_11LLVMContextEjNS_8Metadata11StorageTypeEjNS_8ArrayRefIPS3_EE(ptr noundef nonnull align 8 dereferenceable(16) %0, ptr noundef nonnull align 8 dereferenceable(8) %1, i32 noundef %2, i32 noundef %3, i32 noundef %4, ptr noundef byval(%"class.llvm::ArrayRef") align 8 %5) unnamed_addr #1 comdat align 2 {
  %7 = alloca ptr, align 8
  %8 = alloca ptr, align 8
  %9 = alloca i32, align 4
  %10 = alloca i32, align 4
  %11 = alloca i32, align 4
  %12 = alloca %"class.llvm::ArrayRef", align 8
  %13 = alloca %"class.llvm::ArrayRef", align 8
  store ptr %0, ptr %7, align 8
  store ptr %1, ptr %8, align 8
  store i32 %2, ptr %9, align 4
  store i32 %3, ptr %10, align 4
  store i32 %4, ptr %11, align 4
  %14 = load ptr, ptr %7, align 8
  %15 = load ptr, ptr %8, align 8
  %16 = load i32, ptr %9, align 4
  %17 = load i32, ptr %10, align 4
  %18 = load i32, ptr %11, align 4
  call void @llvm.memcpy.p0.p0.i64(ptr align 8 %12, ptr align 8 %5, i64 16, i1 false)
  call void @_ZN4llvm8ArrayRefIPNS_8MetadataEEC2ESt9nullopt_t(ptr noundef nonnull align 8 dereferenceable(16) %13)
  call void @_ZN4llvm6DINodeC2ERNS_11LLVMContextEjNS_8Metadata11StorageTypeEjNS_8ArrayRefIPS3_EES7_(ptr noundef nonnull align 8 dereferenceable(16) %14, ptr noundef nonnull align 8 dereferenceable(8) %15, i32 noundef %16, i32 noundef %17, i32 noundef %18, ptr noundef byval(%"class.llvm::ArrayRef") align 8 %12, ptr noundef byval(%"class.llvm::ArrayRef") align 8 %13)
  ret void
}

; Function Attrs: mustprogress nounwind uwtable
define linkonce_odr hidden void @_ZN4llvm12DILocalScopeC2ERNS_11LLVMContextEjNS_8Metadata11StorageTypeEjNS_8ArrayRefIPS3_EE(ptr noundef nonnull align 8 dereferenceable(16) %0, ptr noundef nonnull align 8 dereferenceable(8) %1, i32 noundef %2, i32 noundef %3, i32 noundef %4, ptr noundef byval(%"class.llvm::ArrayRef") align 8 %5) unnamed_addr #1 comdat align 2 {
  %7 = alloca ptr, align 8
  %8 = alloca ptr, align 8
  %9 = alloca i32, align 4
  %10 = alloca i32, align 4
  %11 = alloca i32, align 4
  %12 = alloca %"class.llvm::ArrayRef", align 8
  store ptr %0, ptr %7, align 8
  store ptr %1, ptr %8, align 8
  store i32 %2, ptr %9, align 4
  store i32 %3, ptr %10, align 4
  store i32 %4, ptr %11, align 4
  %13 = load ptr, ptr %7, align 8
  %14 = load ptr, ptr %8, align 8
  %15 = load i32, ptr %9, align 4
  %16 = load i32, ptr %10, align 4
  %17 = load i32, ptr %11, align 4
  call void @llvm.memcpy.p0.p0.i64(ptr align 8 %12, ptr align 8 %5, i64 16, i1 false)
  call void @_ZN4llvm7DIScopeC2ERNS_11LLVMContextEjNS_8Metadata11StorageTypeEjNS_8ArrayRefIPS3_EE(ptr noundef nonnull align 8 dereferenceable(16) %13, ptr noundef nonnull align 8 dereferenceable(8) %14, i32 noundef %15, i32 noundef %16, i32 noundef %17, ptr noundef byval(%"class.llvm::ArrayRef") align 8 %12)
  ret void
}

; Function Attrs: mustprogress nounwind uwtable
define dso_local void @_ZN4llvm12DISubprogramC2ERNS_11LLVMContextENS_8Metadata11StorageTypeEjjjiNS_6DINode7DIFlagsENS0_9DISPFlagsENS_8ArrayRefIPS3_EE(ptr noundef nonnull align 8 dereferenceable(40) %0, ptr noundef nonnull align 8 dereferenceable(8) %1, i32 noundef %2, i32 noundef %3, i32 noundef %4, i32 noundef %5, i32 noundef %6, i32 noundef %7, i32 noundef %8, ptr noundef byval(%"class.llvm::ArrayRef") align 8 %9) unnamed_addr #1 align 2 {
  %11 = alloca ptr, align 8
  %12 = alloca ptr, align 8
  %13 = alloca i32, align 4
  %14 = alloca i32, align 4
  %15 = alloca i32, align 4
  %16 = alloca i32, align 4
  %17 = alloca i32, align 4
  %18 = alloca i32, align 4
  %19 = alloca i32, align 4
  %20 = alloca %"class.llvm::ArrayRef", align 8
  store ptr %0, ptr %11, align 8
  store ptr %1, ptr %12, align 8
  store i32 %2, ptr %13, align 4
  store i32 %3, ptr %14, align 4
  store i32 %4, ptr %15, align 4
  store i32 %5, ptr %16, align 4
  store i32 %6, ptr %17, align 4
  store i32 %7, ptr %18, align 4
  store i32 %8, ptr %19, align 4
  %21 = load ptr, ptr %11, align 8
  %22 = load ptr, ptr %12, align 8
  %23 = load i32, ptr %13, align 4
  call void @llvm.memcpy.p0.p0.i64(ptr align 8 %20, ptr align 8 %9, i64 16, i1 false)
  call void @_ZN4llvm12DILocalScopeC2ERNS_11LLVMContextEjNS_8Metadata11StorageTypeEjNS_8ArrayRefIPS3_EE(ptr noundef nonnull align 8 dereferenceable(16) %21, ptr noundef nonnull align 8 dereferenceable(8) %22, i32 noundef 18, i32 noundef %23, i32 noundef 46, ptr noundef byval(%"class.llvm::ArrayRef") align 8 %20)
  %24 = getelementptr inbounds nuw %"class.llvm::DISubprogram", ptr %21, i32 0, i32 1
  %25 = load i32, ptr %14, align 4
  store i32 %25, ptr %24, align 8
  %26 = getelementptr inbounds nuw %"class.llvm::DISubprogram", ptr %21, i32 0, i32 2
  %27 = load i32, ptr %15, align 4
  store i32 %27, ptr %26, align 4
  %28 = getelementptr inbounds nuw %"class.llvm::DISubprogram", ptr %21, i32 0, i32 3
  %29 = load i32, ptr %16, align 4
  store i32 %29, ptr %28, align 8
  %30 = getelementptr inbounds nuw %"class.llvm::DISubprogram", ptr %21, i32 0, i32 4
  %31 = load i32, ptr %17, align 4
  store i32 %31, ptr %30, align 4
  %32 = getelementptr inbounds nuw %"class.llvm::DISubprogram", ptr %21, i32 0, i32 5
  %33 = load i32, ptr %18, align 4
  store i32 %33, ptr %32, align 8
  %34 = getelementptr inbounds nuw %"class.llvm::DISubprogram", ptr %21, i32 0, i32 6
  %35 = load i32, ptr %19, align 4
  store i32 %35, ptr %34, align 4
  ret void
}