; Function Attrs: mustprogress nounwind uwtable
define dso_local void @_ZN4llvm12DISubprogramC2ERNS_11LLVMContextENS_8Metadata11StorageTypeEjjjiNS_6DINode7DIFlagsENS0_9DISPFlagsENS_8ArrayRefIPS3_EE(ptr noundef nonnull align 8 dereferenceable(40) %0, ptr noundef nonnull align 8 dereferenceable(8) %1, i32 noundef %2, i32 noundef %3, i32 noundef %4, i32 noundef %5, i32 noundef %6, i32 noundef %7, i32 noundef %8, ptr nocapture noundef readonly byval(%"class.llvm::ArrayRef") align 8 %9) unnamed_addr #0 align 2 {
  %11 = alloca %"class.llvm::ArrayRef", align 8
  %.sroa.08.0.copyload = load ptr, ptr %9, align 8
  %.sroa.2.0..sroa_idx = getelementptr inbounds i8, ptr %9, i64 8
  %.sroa.2.0.copyload = load i64, ptr %.sroa.2.0..sroa_idx, align 8
  call void @llvm.lifetime.start.p0(i64 16, ptr nonnull %11)
  call void @llvm.memset.p0.i64(ptr noundef nonnull align 8 dereferenceable(16) %11, i8 0, i64 16, i1 false)
  tail call void @_ZN4llvm6MDNodeC2ERNS_11LLVMContextEjNS_8Metadata11StorageTypeENS_8ArrayRefIPS3_EES7_(ptr noundef nonnull align 8 dereferenceable(16) %0, ptr noundef nonnull align 8 dereferenceable(8) %1, i32 noundef 18, i32 noundef %2, ptr %.sroa.08.0.copyload, i64 %.sroa.2.0.copyload, ptr noundef nonnull byval(%"class.llvm::ArrayRef") align 8 %11) #24
  %12 = getelementptr inbounds nuw i8, ptr %0, i64 2
  store i16 46, ptr %12, align 2
  call void @llvm.lifetime.end.p0(i64 16, ptr nonnull %11)
  %13 = getelementptr inbounds nuw i8, ptr %0, i64 16
  store i32 %3, ptr %13, align 8
  %14 = getelementptr inbounds nuw i8, ptr %0, i64 20
  store i32 %4, ptr %14, align 4
  %15 = getelementptr inbounds nuw i8, ptr %0, i64 24
  store i32 %5, ptr %15, align 8
  %16 = getelementptr inbounds nuw i8, ptr %0, i64 28
  store i32 %6, ptr %16, align 4
  %17 = getelementptr inbounds nuw i8, ptr %0, i64 32
  store i32 %7, ptr %17, align 8
  %18 = getelementptr inbounds nuw i8, ptr %0, i64 36
  store i32 %8, ptr %18, align 4
  ret void
}